; Function Attrs: nounwind uwtable
define dso_local void @ExecSortInitializeWorker(ptr noundef captures(none) initializes((264, 265), (272, 280)) %0, ptr noundef readonly captures(none) %1) local_unnamed_addr #0 {
  %3 = getelementptr inbounds nuw i8, ptr %1, i64 8
  %4 = load ptr, ptr %3, align 8
  %5 = getelementptr inbounds nuw i8, ptr %0, i64 8
  %6 = load ptr, ptr %5, align 8
  %7 = getelementptr inbounds nuw i8, ptr %6, i64 40
  %8 = load i32, ptr %7, align 8
  %9 = sext i32 %8 to i64
  %10 = tail call ptr @shm_toc_lookup(ptr noundef %4, i64 noundef %9, i1 noundef zeroext true) #4
  %11 = getelementptr inbounds nuw i8, ptr %0, i64 272
  store ptr %10, ptr %11, align 8
  %12 = getelementptr inbounds nuw i8, ptr %0, i64 264
  store i8 1, ptr %12, align 8
  ret void
}